target datalayout = "e-m:e-p270:32:32-p271:32:32-p272:64:64-i64:64-i128:128-f80:128-n8:16:32:64-S128"
target triple = "x86_64-pc-linux-gnu"

%struct.Dar_Man_t_ = type { ptr, ptr, ptr, ptr, ptr, ptr, i32, i32, i32, i32, i32, i32, [222 x i32], [222 x i32], [222 x i32], i32, i32, i32, i32, i32, i32, i32, i32, i32, i64, i64, i64, i64, i64, i64 }
%struct.Dar_RwrPar_t_ = type { i32, i32, i32, i32, i32, i32, i32, i32, i32, i32 }
%struct.Vec_Ptr_t_ = type { i32, i32, ptr }

; Function Attrs: inlinehint nounwind uwtable
define internal void @Vec_PtrFree(ptr noundef %0) #5 {
  %2 = alloca ptr, align 8
  store ptr %0, ptr %2, align 8, !tbaa !25
  %3 = load ptr, ptr %2, align 8, !tbaa !25
  %4 = getelementptr inbounds nuw %struct.Vec_Ptr_t_, ptr %3, i32 0, i32 2
  %5 = load ptr, ptr %4, align 8, !tbaa !29
  %6 = icmp ne ptr %5, null
  br i1 %6, label %7, label %13

7:                                                ; preds = %1
  %8 = load ptr, ptr %2, align 8, !tbaa !25
  %9 = getelementptr inbounds nuw %struct.Vec_Ptr_t_, ptr %8, i32 0, i32 2
  %10 = load ptr, ptr %9, align 8, !tbaa !29
  call void @free(ptr noundef %10) #9
  %11 = load ptr, ptr %2, align 8, !tbaa !25
  %12 = getelementptr inbounds nuw %struct.Vec_Ptr_t_, ptr %11, i32 0, i32 2
  store ptr null, ptr %12, align 8, !tbaa !29
  br label %14

13:                                               ; preds = %1
  br label %14

14:                                               ; preds = %13, %7
  %15 = load ptr, ptr %2, align 8, !tbaa !25
  %16 = icmp ne ptr %15, null
  br i1 %16, label %17, label %19

17:                                               ; preds = %14
  %18 = load ptr, ptr %2, align 8, !tbaa !25
  call void @free(ptr noundef %18) #9
  store ptr null, ptr %2, align 8, !tbaa !25
  br label %20

19:                                               ; preds = %14
  br label %20

20:                                               ; preds = %19, %17
  ret void
}

; Function Attrs: nounwind uwtable
define void @Dar_ManStop(ptr noundef %0) #0 {
  %2 = alloca ptr, align 8
  store ptr %0, ptr %2, align 8, !tbaa !10
  %3 = load ptr, ptr %2, align 8, !tbaa !10
  %4 = getelementptr inbounds nuw %struct.Dar_Man_t_, ptr %3, i32 0, i32 0
  %5 = load ptr, ptr %4, align 8, !tbaa !12
  %6 = getelementptr inbounds nuw %struct.Dar_RwrPar_t_, ptr %5, i32 0, i32 8
  %7 = load i32, ptr %6, align 4, !tbaa !30
  %8 = icmp ne i32 %7, 0
  br i1 %8, label %9, label %11

9:                                                ; preds = %1
  %10 = load ptr, ptr %2, align 8, !tbaa !10
  call void @Dar_ManPrintStats(ptr noundef %10)
  br label %11

11:                                               ; preds = %9, %1
  %12 = load ptr, ptr %2, align 8, !tbaa !10
  %13 = getelementptr inbounds nuw %struct.Dar_Man_t_, ptr %12, i32 0, i32 4
  %14 = load ptr, ptr %13, align 8, !tbaa !19
  %15 = icmp ne ptr %14, null
  br i1 %15, label %16, label %20

16:                                               ; preds = %11
  %17 = load ptr, ptr %2, align 8, !tbaa !10
  %18 = getelementptr inbounds nuw %struct.Dar_Man_t_, ptr %17, i32 0, i32 4
  %19 = load ptr, ptr %18, align 8, !tbaa !19
  call void @Vec_PtrFree(ptr noundef %19)
  br label %20

20:                                               ; preds = %16, %11
  %21 = load ptr, ptr %2, align 8, !tbaa !10
  %22 = getelementptr inbounds nuw %struct.Dar_Man_t_, ptr %21, i32 0, i32 2
  %23 = load ptr, ptr %22, align 8, !tbaa !22
  %24 = icmp ne ptr %23, null
  br i1 %24, label %25, label %29

25:                                               ; preds = %20
  %26 = load ptr, ptr %2, align 8, !tbaa !10
  %27 = getelementptr inbounds nuw %struct.Dar_Man_t_, ptr %26, i32 0, i32 2
  %28 = load ptr, ptr %27, align 8, !tbaa !22
  call void @Aig_MmFixedStop(ptr noundef %28, i32 noundef 0)
  br label %29

29:                                               ; preds = %25, %20
  %30 = load ptr, ptr %2, align 8, !tbaa !10
  %31 = getelementptr inbounds nuw %struct.Dar_Man_t_, ptr %30, i32 0, i32 5
  %32 = load ptr, ptr %31, align 8, !tbaa !23
  %33 = icmp ne ptr %32, null
  br i1 %33, label %34, label %38

34:                                               ; preds = %29
  %35 = load ptr, ptr %2, align 8, !tbaa !10
  %36 = getelementptr inbounds nuw %struct.Dar_Man_t_, ptr %35, i32 0, i32 5
  %37 = load ptr, ptr %36, align 8, !tbaa !23
  call void @Vec_PtrFree(ptr noundef %37)
  br label %38

38:                                               ; preds = %34, %29
  %39 = load ptr, ptr %2, align 8, !tbaa !10
  %40 = icmp ne ptr %39, null
  br i1 %40, label %41, label %43

41:                                               ; preds = %38
  %42 = load ptr, ptr %2, align 8, !tbaa !10
  call void @free(ptr noundef %42) #9
  store ptr null, ptr %2, align 8, !tbaa !10
  br label %44

43:                                               ; preds = %38
  br label %44

44:                                               ; preds = %43, %41
  ret void
}