; Function Attrs: nounwind uwtable
define void @Dar_ManStop(ptr noundef captures(none) %0) local_unnamed_addr #0 {
  %2 = load ptr, ptr %0, align 8, !tbaa !3
  %3 = getelementptr inbounds nuw i8, ptr %2, i64 32
  %4 = load i32, ptr %3, align 4, !tbaa !24
  %.not = icmp eq i32 %4, 0
  br i1 %.not, label %6, label %5

5:                                                ; preds = %1
  tail call void @Dar_ManPrintStats(ptr noundef nonnull %0)
  br label %6

6:                                                ; preds = %5, %1
  %7 = getelementptr inbounds nuw i8, ptr %0, i64 32
  %8 = load ptr, ptr %7, align 8, !tbaa !19
  %.not12 = icmp eq ptr %8, null
  br i1 %.not12, label %13, label %9

9:                                                ; preds = %6
  %10 = getelementptr inbounds nuw i8, ptr %8, i64 8
  %11 = load ptr, ptr %10, align 8, !tbaa !18
  %.not.i = icmp eq ptr %11, null
  br i1 %.not.i, label %Vec_PtrFree.exit, label %12

12:                                               ; preds = %9
  tail call void @free(ptr noundef nonnull %11) #11
  br label %Vec_PtrFree.exit

Vec_PtrFree.exit:                                 ; preds = %9, %12
  tail call void @free(ptr noundef nonnull %8) #11
  br label %13

13:                                               ; preds = %Vec_PtrFree.exit, %6
  %14 = getelementptr inbounds nuw i8, ptr %0, i64 16
  %15 = load ptr, ptr %14, align 8, !tbaa !22
  %.not13 = icmp eq ptr %15, null
  br i1 %.not13, label %17, label %16

16:                                               ; preds = %13
  tail call void @Aig_MmFixedStop(ptr noundef nonnull %15, i32 noundef 0) #11
  br label %17

17:                                               ; preds = %16, %13
  %18 = getelementptr inbounds nuw i8, ptr %0, i64 40
  %19 = load ptr, ptr %18, align 8, !tbaa !23
  %.not14 = icmp eq ptr %19, null
  br i1 %.not14, label %24, label %20

20:                                               ; preds = %17
  %21 = getelementptr inbounds nuw i8, ptr %19, i64 8
  %22 = load ptr, ptr %21, align 8, !tbaa !18
  %.not.i15 = icmp eq ptr %22, null
  br i1 %.not.i15, label %Vec_PtrFree.exit16, label %23

23:                                               ; preds = %20
  tail call void @free(ptr noundef nonnull %22) #11
  br label %Vec_PtrFree.exit16

Vec_PtrFree.exit16:                               ; preds = %20, %23
  tail call void @free(ptr noundef nonnull %19) #11
  br label %24

24:                                               ; preds = %17, %Vec_PtrFree.exit16
  tail call void @free(ptr noundef nonnull %0) #11
  ret void
}